target datalayout = "e-m:e-p270:32:32-p271:32:32-p272:64:64-i64:64-i128:128-f80:128-n8:16:32:64-S128"
target triple = "x86_64-pc-linux-gnu"

%"class.sat::literal" = type { i32 }
%class.vector = type { ptr }
%class.svector.5 = type { %class.vector.6 }
%class.vector.6 = type { ptr }
%"class.sat::proof_trim" = type { %"class.sat::solver", %class.svector.27, %class.svector.27, %class.svector.27, %class.uint_set, %class.uint_set, %class.uint_set, ptr, %class.vector.51, %class.vector, %class.map.52, %class.svector.15, %class.uint_set }
%"class.sat::solver" = type { %"class.sat::solver_core", i8, [7 x i8], %"struct.sat::config", %"struct.sat::stats", %class.scoped_ptr, %class.scoped_ptr.0, ptr, %"class.sat::drat", [2 x %"class.sat::clause_allocator"], i8, %class.random_gen, %"class.sat::cleaner", %class.svector.12, %"class.sat::model_converter", i8, %"class.sat::simplifier", %"class.sat::scc", %"class.sat::asymm_branch", %"class.sat::probing", i8, [7 x i8], %"class.sat::mus", i8, i8, [6 x i8], %"class.sat::justification", %"class.sat::literal", %class.ptr_vector.21, %class.ptr_vector.21, i32, %class.svector.5, %class.svector.5, %class.svector.5, %class.svector.5, %class.vector.39, %class.svector.12, %class.svector.40, %class.svector.15, %class.svector.15, %class.svector.15, %class.svector.15, %class.svector.15, %class.svector.5, %class.svector.5, i32, %class.svector.27, %class.svector.5, i32, %class.svector.42, %class.svector.42, %class.svector.42, %class.svector.42, %class.svector.42, i32, double, %class.svector.15, %class.svector.15, %class.svector.15, i8, %class.svector.25, i32, i32, i32, i32, i32, i32, %"struct.sat::backoff", i32, i32, %"struct.sat::backoff", %"struct.sat::backoff", %class.var_queue, i32, i32, i32, %class.ema, %class.ema, %class.ema, %class.ema, %class.ema, %class.svector.27, %class.svector.29, %"class.std::__cxx11::basic_string", i8, i8, %class.visit_helper, %class.svector.44, %class.scoped_limit_trail, %class.stopwatch, %class.params_ref, %"struct.sat::no_drat_params", %class.scoped_ptr.46, %class.svector.27, %"class.sat::literal_set", %"class.sat::literal_set", %class.svector.27, i32, i32, i32, i32, i8, ptr, ptr, %class.statistics, i32, i32, i32, i32, i8, i32, i32, i32, i32, i32, i32, i32, double, i32, double, i8, i8, %class.svector.27, i8, %class.svector.42, i32, i32, i32, %class.svector.27, %class.svector.27, %class.svector.25, %class.svector.5, %class.approx_set_tpl, %class.svector.27, %class.svector.27, %class.vector.11, %class.svector.27, %class.svector.37, %class.u_map, %class.svector.27 }
%"class.sat::solver_core" = type { ptr, ptr }
%"struct.sat::config" = type <{ i64, i32, i32, i32, i8, [3 x i8], i32, i32, double, i32, i8, [3 x i8], i32, i8, [3 x i8], i32, [4 x i8], double, double, i32, i32, double, double, i32, [4 x i8], %class.symbol, double, i32, i32, i8, [3 x i8], i32, i32, i8, [3 x i8], i32, i8, [3 x i8], i32, i8, [3 x i8], i32, i8, i8, [2 x i8], i32, i8, i8, i8, i8, i8, i8, i8, i8, i32, i8, i8, i8, i8, i32, double, i32, [4 x i8], double, double, double, double, i32, i8, i8, [2 x i8], double, i8, i8, [2 x i8], i32, double, i32, i32, i32, i32, i32, i32, i32, i32, i8, i8, i8, i8, i32, i32, i8, i8, i8, i8, i8, i8, i8, [5 x i8], %class.symbol, i8, i8, i8, i8, i8, i8, [2 x i8], i32, i32, i32, i8, [3 x i8], double, double, double, double, double, i8, [7 x i8] }>
%class.symbol = type { ptr }
%"struct.sat::stats" = type { i32, i32, i32, i32, i32, i32, i32, i32, i32, i32, i32, i32, i32, i32, i32, i32, i32, i32, i32, i32, i32 }
%class.scoped_ptr = type { ptr }
%class.scoped_ptr.0 = type { ptr }
%"class.sat::drat" = type { ptr, %class.svector, ptr, %"class.sat::clause_allocator", ptr, ptr, %class.svector.7, %class.svector.9, %class.vector.11, %class.svector.12, i8, i8, i8, i8, i8, %"struct.sat::drat::stats" }
%class.svector = type { %class.vector.1 }
%class.vector.1 = type { ptr }
%"class.sat::clause_allocator" = type { %class.sat_allocator, %class.id_gen }
%class.sat_allocator = type { ptr, i64, %class.ptr_vector, ptr, [65 x %class.ptr_vector.3] }
%class.ptr_vector = type { %class.vector.2 }
%class.vector.2 = type { ptr }
%class.ptr_vector.3 = type { %class.vector.4 }
%class.vector.4 = type { ptr }
%class.id_gen = type { i32, %class.svector.5 }
%class.svector.7 = type { %class.vector.8 }
%class.vector.8 = type { ptr }
%class.svector.9 = type { %class.vector.10 }
%class.vector.10 = type { ptr }
%"struct.sat::drat::stats" = type { i32, i32, i32, i32 }
%class.random_gen = type { i32 }
%"class.sat::cleaner" = type { ptr, i32, i32, i32, i32 }
%"class.sat::model_converter" = type { %class.vector.14, i32, %class.svector.15, ptr, %class.svector.17 }
%class.vector.14 = type { ptr }
%class.svector.17 = type { %class.vector.18 }
%class.vector.18 = type { ptr }
%"class.sat::simplifier" = type { ptr, i32, %"class.sat::use_list", %"class.sat::ext_use_list", %"class.sat::clause_set", %class.svector.23, i32, %class.tracked_uint_set, i8, %"class.sat::tmp_clause", %class.svector.25, i32, i32, i8, i8, i8, i8, i32, i8, i8, i32, i8, i32, i8, i8, i32, i32, i32, i32, i32, i32, i32, i32, i32, i32, i8, i32, i8, i8, i32, i32, i32, i32, i32, i32, i32, i32, i32, i32, i32, i8, i32, %class.ptr_vector.21, %class.svector.27, %class.svector.29, %class.svector.29, %class.svector.27 }
%"class.sat::use_list" = type { %class.vector.19 }
%class.vector.19 = type { ptr }
%"class.sat::ext_use_list" = type { %class.vector.20 }
%class.vector.20 = type { ptr }
%"class.sat::clause_set" = type { %class.svector.5, %class.ptr_vector.21 }
%class.svector.23 = type { %class.vector.24 }
%class.vector.24 = type { ptr }
%class.tracked_uint_set = type { %class.svector.25, %class.svector.5 }
%"class.sat::tmp_clause" = type { ptr }
%"class.sat::scc" = type { ptr, i8, i8, i32, i32, %"class.sat::big" }
%"class.sat::big" = type { ptr, i32, %class.vector.31, %class.svector.15, %class.svector.32, %class.svector.32, %class.svector.27, %class.svector.27, i8, i8, %class.vector.31 }
%class.svector.32 = type { %class.vector.33 }
%class.vector.33 = type { ptr }
%class.vector.31 = type { ptr }
%"class.sat::asymm_branch" = type { ptr, %class.params_ref, i64, %class.random_gen, i32, i32, i8, i32, i32, i8, i8, i64, i32, i32, i32, %class.svector.27, %class.svector.27, %class.svector.34, %class.svector.34, %class.svector.27, %class.svector.27 }
%class.svector.34 = type { %class.vector.35 }
%class.vector.35 = type { ptr }
%"class.sat::probing" = type { ptr, i32, %"class.sat::literal_set", %class.svector.27, i32, i8, i32, i8, i8, i64, i32, %class.vector.36, %class.svector.37, %"class.sat::big" }
%class.vector.36 = type { ptr }
%"class.sat::mus" = type <{ ptr, %class.svector.27, %class.svector.27, i8, [7 x i8], %class.svector.12, i32, [4 x i8] }>
%"class.sat::justification" = type <{ i32, [4 x i8], i64, i32, [4 x i8] }>
%class.ptr_vector.21 = type { %class.vector.22 }
%class.vector.22 = type { ptr }
%class.vector.39 = type { ptr }
%class.svector.12 = type { %class.vector.13 }
%class.vector.13 = type { ptr }
%class.svector.40 = type { %class.vector.41 }
%class.vector.41 = type { ptr }
%"struct.sat::backoff" = type { i32, i32, i32, i32, i32 }
%class.var_queue = type { %class.heap }
%class.heap = type { %"struct.var_queue<svector<unsigned int>>::lt", %class.svector.32, %class.svector.32 }
%"struct.var_queue<svector<unsigned int>>::lt" = type { ptr }
%class.ema = type { double, double, double, i32, i32 }
%class.svector.29 = type { %class.vector.30 }
%class.vector.30 = type { ptr }
%"class.std::__cxx11::basic_string" = type { %"struct.std::__cxx11::basic_string<char>::_Alloc_hider", i64, %union.anon }
%"struct.std::__cxx11::basic_string<char>::_Alloc_hider" = type { ptr }
%union.anon = type { i64, [8 x i8] }
%class.visit_helper = type { %class.svector.5, i32, i32 }
%class.svector.44 = type { %class.vector.45 }
%class.vector.45 = type { ptr }
%class.scoped_limit_trail = type { %class.svector.5, i32, i32 }
%class.stopwatch = type <{ %"class.std::chrono::time_point", %"class.std::chrono::duration", i8, [7 x i8] }>
%"class.std::chrono::time_point" = type { %"class.std::chrono::duration" }
%"class.std::chrono::duration" = type { i64 }
%class.params_ref = type { ptr }
%"struct.sat::no_drat_params" = type { %class.params_ref }
%class.scoped_ptr.46 = type { ptr }
%"class.sat::literal_set" = type { %class.tracked_uint_set }
%class.statistics = type { %class.svector.47, %class.svector.49 }
%class.svector.47 = type { %class.vector.48 }
%class.vector.48 = type { ptr }
%class.svector.49 = type { %class.vector.50 }
%class.vector.50 = type { ptr }
%class.svector.42 = type { %class.vector.43 }
%class.vector.43 = type { ptr }
%class.svector.25 = type { %class.vector.26 }
%class.vector.26 = type { ptr }
%class.approx_set_tpl = type { i32 }
%class.vector.11 = type { ptr }
%class.svector.37 = type { %class.vector.38 }
%class.vector.38 = type { ptr }
%class.u_map = type { %class.map }
%class.map = type { %class.table2map }
%class.table2map = type { %class.core_hashtable }
%class.core_hashtable = type <{ ptr, i32, i32, i32, [4 x i8] }>
%class.svector.27 = type { %class.vector.28 }
%class.vector.28 = type { ptr }
%class.vector.51 = type { ptr }
%class.map.52 = type { %class.table2map.53 }
%class.table2map.53 = type { %class.core_hashtable.54 }
%class.core_hashtable.54 = type <{ ptr, i32, i32, i32, [4 x i8] }>
%class.svector.15 = type { %class.vector.16 }
%class.vector.16 = type { ptr }
%class.uint_set = type { %class.svector.5 }
%"class.sat::status" = type { i32, i32, ptr }

; Function Attrs: mustprogress nounwind uwtable
define linkonce_odr hidden void @_ZN3sat6statusC2ERKS0_(ptr noundef nonnull align 8 dereferenceable(16) %0, ptr noundef nonnull align 8 dereferenceable(16) %1) unnamed_addr #7 comdat align 2 {
  %3 = alloca ptr, align 8
  %4 = alloca ptr, align 8
  store ptr %0, ptr %3, align 8, !tbaa !255
  store ptr %1, ptr %4, align 8, !tbaa !255
  %5 = load ptr, ptr %3, align 8
  %6 = getelementptr inbounds nuw %"class.sat::status", ptr %5, i32 0, i32 0
  %7 = load ptr, ptr %4, align 8, !tbaa !255
  %8 = getelementptr inbounds nuw %"class.sat::status", ptr %7, i32 0, i32 0
  %9 = load i32, ptr %8, align 8, !tbaa !367
  store i32 %9, ptr %6, align 8, !tbaa !367
  %10 = getelementptr inbounds nuw %"class.sat::status", ptr %5, i32 0, i32 1
  %11 = load ptr, ptr %4, align 8, !tbaa !255
  %12 = getelementptr inbounds nuw %"class.sat::status", ptr %11, i32 0, i32 1
  %13 = load i32, ptr %12, align 4, !tbaa !371
  store i32 %13, ptr %10, align 4, !tbaa !371
  %14 = getelementptr inbounds nuw %"class.sat::status", ptr %5, i32 0, i32 2
  %15 = load ptr, ptr %4, align 8, !tbaa !255
  %16 = getelementptr inbounds nuw %"class.sat::status", ptr %15, i32 0, i32 2
  %17 = load ptr, ptr %16, align 8, !tbaa !372
  store ptr %17, ptr %14, align 8, !tbaa !372
  ret void
}

; Function Attrs: mustprogress nounwind uwtable
define linkonce_odr hidden noundef ptr @_ZNK6vectorIN3sat7literalELb0EjE4dataEv(ptr noundef nonnull align 8 dereferenceable(8) %0) #7 comdat align 2 {
  %2 = alloca ptr, align 8
  store ptr %0, ptr %2, align 8, !tbaa !233
  %3 = load ptr, ptr %2, align 8
  %4 = getelementptr inbounds nuw %class.vector.28, ptr %3, i32 0, i32 0
  %5 = load ptr, ptr %4, align 8, !tbaa !235
  ret ptr %5
}

; Function Attrs: mustprogress nounwind uwtable
define linkonce_odr hidden noundef i32 @_ZNK6vectorIN3sat7literalELb0EjE4sizeEv(ptr noundef nonnull align 8 dereferenceable(8) %0) #7 comdat align 2 {
  %2 = alloca i32, align 4
  %3 = alloca ptr, align 8
  store ptr %0, ptr %3, align 8, !tbaa !233
  %4 = load ptr, ptr %3, align 8
  %5 = getelementptr inbounds nuw %class.vector.28, ptr %4, i32 0, i32 0
  %6 = load ptr, ptr %5, align 8, !tbaa !235
  %7 = icmp eq ptr %6, null
  br i1 %7, label %8, label %9

8:                                                ; preds = %1
  store i32 0, ptr %2, align 4
  br label %14

9:                                                ; preds = %1
  %10 = getelementptr inbounds nuw %class.vector.28, ptr %4, i32 0, i32 0
  %11 = load ptr, ptr %10, align 8, !tbaa !235
  %12 = getelementptr inbounds i32, ptr %11, i64 -1
  %13 = load i32, ptr %12, align 4, !tbaa !178
  store i32 %13, ptr %2, align 4
  br label %14

14:                                               ; preds = %9, %8
  %15 = load i32, ptr %2, align 4
  ret i32 %15
}

; Function Attrs: mustprogress nounwind uwtable
define linkonce_odr hidden void @_ZN3sat6statusC2ENS0_2stEiPKNS_10proof_hintE(ptr noundef nonnull align 8 dereferenceable(16) %0, i32 noundef %1, i32 noundef %2, ptr noundef %3) unnamed_addr #7 comdat align 2 {
  %5 = alloca ptr, align 8
  %6 = alloca i32, align 4
  %7 = alloca i32, align 4
  %8 = alloca ptr, align 8
  store ptr %0, ptr %5, align 8, !tbaa !255
  store i32 %1, ptr %6, align 4, !tbaa !373
  store i32 %2, ptr %7, align 4, !tbaa !178
  store ptr %3, ptr %8, align 8, !tbaa !374
  %9 = load ptr, ptr %5, align 8
  %10 = getelementptr inbounds nuw %"class.sat::status", ptr %9, i32 0, i32 0
  %11 = load i32, ptr %6, align 4, !tbaa !373
  store i32 %11, ptr %10, align 8, !tbaa !367
  %12 = getelementptr inbounds nuw %"class.sat::status", ptr %9, i32 0, i32 1
  %13 = load i32, ptr %7, align 4, !tbaa !178
  store i32 %13, ptr %12, align 4, !tbaa !371
  %14 = getelementptr inbounds nuw %"class.sat::status", ptr %9, i32 0, i32 2
  %15 = load ptr, ptr %8, align 8, !tbaa !374
  store ptr %15, ptr %14, align 8, !tbaa !372
  ret void
}

; Function Attrs: mustprogress uwtable
define linkonce_odr hidden noundef ptr @_ZN3sat6solver9mk_clauseERK7svectorINS_7literalEjENS_6statusE(ptr noundef nonnull align 8 dereferenceable(4264) %0, ptr noundef nonnull align 8 dereferenceable(8) %1, ptr noundef %2) #4 comdat align 2 {
  %4 = alloca ptr, align 8
  %5 = alloca ptr, align 8
  %6 = alloca ptr, align 8
  %7 = alloca %"class.sat::status", align 8
  store ptr %0, ptr %4, align 8, !tbaa !237
  store ptr %1, ptr %5, align 8, !tbaa !12
  store ptr %2, ptr %6, align 8, !tbaa !255
  %8 = load ptr, ptr %4, align 8
  %9 = load ptr, ptr %5, align 8, !tbaa !12
  %10 = call noundef i32 @_ZNK6vectorIN3sat7literalELb0EjE4sizeEv(ptr noundef nonnull align 8 dereferenceable(8) %9)
  %11 = load ptr, ptr %5, align 8, !tbaa !12
  %12 = call noundef ptr @_ZNK6vectorIN3sat7literalELb0EjE4dataEv(ptr noundef nonnull align 8 dereferenceable(8) %11)
  call void @_ZN3sat6statusC2ERKS0_(ptr noundef nonnull align 8 dereferenceable(16) %7, ptr noundef nonnull align 8 dereferenceable(16) %2)
  %13 = call noundef ptr @_ZN3sat6solver9mk_clauseEjPNS_7literalENS_6statusE(ptr noundef nonnull align 8 dereferenceable(4264) %8, i32 noundef %10, ptr noundef %12, ptr noundef %7)
  ret ptr %13
}

; Function Attrs: mustprogress uwtable
define linkonce_odr hidden void @_ZN3sat6status9redundantEv(ptr dead_on_unwind noalias writable sret(%"class.sat::status") align 8 %0) #4 comdat align 2 {
  %2 = alloca ptr, align 8
  store ptr %0, ptr %2, align 8
  call void @_ZN3sat6statusC2ENS0_2stEiPKNS_10proof_hintE(ptr noundef nonnull align 8 dereferenceable(16) %0, i32 noundef 2, i32 noundef -1, ptr noundef null)
  ret void
}

; Function Attrs: mustprogress uwtable
define linkonce_odr hidden void @_ZN3sat6solver13attach_clauseERNS_6clauseE(ptr noundef nonnull align 8 dereferenceable(4264) %0, ptr noundef nonnull align 4 dereferenceable(20) %1) #4 comdat align 2 {
  %3 = alloca ptr, align 8
  %4 = alloca ptr, align 8
  %5 = alloca i8, align 1
  store ptr %0, ptr %3, align 8, !tbaa !237
  store ptr %1, ptr %4, align 8, !tbaa !182
  %6 = load ptr, ptr %3, align 8
  call void @llvm.lifetime.start.p0(i64 1, ptr %5) #3
  %7 = load ptr, ptr %4, align 8, !tbaa !182
  call void @_ZN3sat6solver13attach_clauseERNS_6clauseERb(ptr noundef nonnull align 8 dereferenceable(4264) %6, ptr noundef nonnull align 4 dereferenceable(20) %7, ptr noundef nonnull align 1 dereferenceable(1) %5)
  call void @llvm.lifetime.end.p0(i64 1, ptr %5) #3
  ret void
}

; Function Attrs: mustprogress uwtable
define hidden void @_ZN3sat10proof_trim6reviveERK7svectorINS_7literalEjEPNS_6clauseE(ptr noundef nonnull align 8 dereferenceable(4376) %0, ptr noundef nonnull align 8 dereferenceable(8) %1, ptr noundef %2) #4 align 2 {
  %4 = alloca ptr, align 8
  %5 = alloca ptr, align 8
  %6 = alloca ptr, align 8
  %7 = alloca %"class.sat::status", align 8
  store ptr %0, ptr %4, align 8, !tbaa !3
  store ptr %1, ptr %5, align 8, !tbaa !12
  store ptr %2, ptr %6, align 8, !tbaa !182
  %8 = load ptr, ptr %4, align 8
  %9 = load ptr, ptr %6, align 8, !tbaa !182
  %10 = icmp ne ptr %9, null
  br i1 %10, label %11, label %14

11:                                               ; preds = %3
  %12 = getelementptr inbounds nuw %"class.sat::proof_trim", ptr %8, i32 0, i32 0
  %13 = load ptr, ptr %6, align 8, !tbaa !182
  call void @_ZN3sat6solver13attach_clauseERNS_6clauseE(ptr noundef nonnull align 8 dereferenceable(4264) %12, ptr noundef nonnull align 4 dereferenceable(20) %13)
  br label %18

14:                                               ; preds = %3
  %15 = getelementptr inbounds nuw %"class.sat::proof_trim", ptr %8, i32 0, i32 0
  %16 = load ptr, ptr %5, align 8, !tbaa !12
  call void @_ZN3sat6status9redundantEv(ptr dead_on_unwind writable sret(%"class.sat::status") align 8 %7)
  %17 = call noundef ptr @_ZN3sat6solver9mk_clauseERK7svectorINS_7literalEjENS_6statusE(ptr noundef nonnull align 8 dereferenceable(4264) %15, ptr noundef nonnull align 8 dereferenceable(8) %16, ptr noundef %7)
  br label %18

18:                                               ; preds = %14, %11
  ret void
}