; Function Attrs: mustprogress uwtable
define hidden void @_ZN3sat10proof_trim6reviveERK7svectorINS_7literalEjEPNS_6clauseE(ptr noundef nonnull align 8 dereferenceable(4376) %0, ptr noundef nonnull readonly align 8 captures(none) dereferenceable(8) %1, ptr noundef %2) local_unnamed_addr #3 align 2 {
  %4 = alloca %"class.sat::status", align 8
  %5 = alloca i8, align 1
  %.not = icmp eq ptr %2, null
  br i1 %.not, label %7, label %6

6:                                                ; preds = %3
  call void @llvm.lifetime.start.p0(i64 1, ptr nonnull %5) #21
  call void @_ZN3sat6solver13attach_clauseERNS_6clauseERb(ptr noundef nonnull align 8 dereferenceable(4264) %0, ptr noundef nonnull align 4 dereferenceable(20) %2, ptr noundef nonnull align 1 dereferenceable(1) %5)
  call void @llvm.lifetime.end.p0(i64 1, ptr nonnull %5) #21
  br label %16

7:                                                ; preds = %3
  call void @llvm.lifetime.start.p0(i64 16, ptr nonnull %4)
  %8 = load ptr, ptr %1, align 8, !tbaa !32
  %9 = icmp eq ptr %8, null
  br i1 %9, label %_ZN3sat6solver9mk_clauseERK7svectorINS_7literalEjENS_6statusE.exit, label %10

10:                                               ; preds = %7
  %11 = getelementptr inbounds i8, ptr %8, i64 -4
  %12 = load i32, ptr %11, align 4, !tbaa !9
  br label %_ZN3sat6solver9mk_clauseERK7svectorINS_7literalEjENS_6statusE.exit

_ZN3sat6solver9mk_clauseERK7svectorINS_7literalEjENS_6statusE.exit: ; preds = %7, %10
  %.0.i.i = phi i32 [ %12, %10 ], [ 0, %7 ]
  store i32 2, ptr %4, align 8, !tbaa !41
  %13 = getelementptr inbounds nuw i8, ptr %4, i64 4
  store i32 -1, ptr %13, align 4, !tbaa !45
  %14 = getelementptr inbounds nuw i8, ptr %4, i64 8
  store ptr null, ptr %14, align 8, !tbaa !46
  %15 = call noundef ptr @_ZN3sat6solver9mk_clauseEjPNS_7literalENS_6statusE(ptr noundef nonnull align 8 dereferenceable(4264) %0, i32 noundef %.0.i.i, ptr noundef %8, ptr noundef nonnull %4)
  call void @llvm.lifetime.end.p0(i64 16, ptr nonnull %4)
  br label %16

16:                                               ; preds = %_ZN3sat6solver9mk_clauseERK7svectorINS_7literalEjENS_6statusE.exit, %6
  ret void
}